target datalayout = "e-m:e-p270:32:32-p271:32:32-p272:64:64-i64:64-i128:128-f80:128-n8:16:32:64-S128"
target triple = "x86_64-pc-linux-gnu"

%struct.UCharIterator = type { ptr, i32, i32, i32, i32, i32, ptr, ptr, ptr, ptr, ptr, ptr, ptr, ptr, ptr, ptr }

; Function Attrs: mustprogress uwtable
define i32 @uiter_getState_77(ptr noundef %0) #0 {
  %2 = alloca i32, align 4
  %3 = alloca ptr, align 8
  store ptr %0, ptr %3, align 8, !tbaa !3
  %4 = load ptr, ptr %3, align 8, !tbaa !3
  %5 = icmp eq ptr %4, null
  br i1 %5, label %11, label %6

6:                                                ; preds = %1
  %7 = load ptr, ptr %3, align 8, !tbaa !3
  %8 = getelementptr inbounds nuw %struct.UCharIterator, ptr %7, i32 0, i32 14
  %9 = load ptr, ptr %8, align 8, !tbaa !33
  %10 = icmp eq ptr %9, null
  br i1 %10, label %11, label %12

11:                                               ; preds = %6, %1
  store i32 -1, ptr %2, align 4
  br label %18

12:                                               ; preds = %6
  %13 = load ptr, ptr %3, align 8, !tbaa !3
  %14 = getelementptr inbounds nuw %struct.UCharIterator, ptr %13, i32 0, i32 14
  %15 = load ptr, ptr %14, align 8, !tbaa !33
  %16 = load ptr, ptr %3, align 8, !tbaa !3
  %17 = call noundef i32 %15(ptr noundef %16)
  store i32 %17, ptr %2, align 4
  br label %18

18:                                               ; preds = %12, %11
  %19 = load i32, ptr %2, align 4
  ret i32 %19
}